; Function Attrs: nounwind uwtable
define void @Gia_ManSpecReduceInit_rec(ptr noundef %0, ptr noundef %1, ptr noundef %2, ptr noundef %3, i32 noundef %4, i32 noundef %5) local_unnamed_addr #0 {
  %7 = getelementptr i8, ptr %1, i64 24
  %.val.i = load i32, ptr %7, align 8, !tbaa !12
  %8 = mul nsw i32 %.val.i, %4
  %9 = getelementptr i8, ptr %1, i64 32
  %.val5.i = load ptr, ptr %9, align 8, !tbaa !36
  %10 = ptrtoint ptr %2 to i64
  %11 = ptrtoint ptr %.val5.i to i64
  %12 = sub i64 %10, %11
  %13 = sdiv exact i64 %12, 12
  %14 = trunc i64 %13 to i32
  %15 = add nsw i32 %8, %14
  %16 = getelementptr i8, ptr %1, i64 400
  %.val4.i = load ptr, ptr %16, align 8, !tbaa !8
  %17 = sext i32 %15 to i64
  %18 = getelementptr inbounds i32, ptr %.val4.i, i64 %17
  %19 = load i32, ptr %18, align 4, !tbaa !32
  %.not = icmp eq i32 %19, -1
  br i1 %.not, label %20, label %common.ret35

common.ret35:                                     ; preds = %6, %20
  ret void

20:                                               ; preds = %6
  %21 = load i64, ptr %2, align 4
  %22 = and i64 %21, 536870911
  %23 = sub nsw i64 0, %22
  %24 = getelementptr inbounds %struct.Gia_Obj_t_, ptr %2, i64 %23
  tail call void @Gia_ManSpecReduceInit_rec(ptr noundef %0, ptr noundef nonnull %1, ptr noundef nonnull %24, ptr noundef %3, i32 noundef %4, i32 noundef %5)
  %25 = load i64, ptr %2, align 4
  %26 = lshr i64 %25, 32
  %27 = and i64 %26, 536870911
  %28 = sub nsw i64 0, %27
  %29 = getelementptr inbounds %struct.Gia_Obj_t_, ptr %2, i64 %28
  tail call void @Gia_ManSpecReduceInit_rec(ptr noundef %0, ptr noundef nonnull %1, ptr noundef nonnull %29, ptr noundef %3, i32 noundef %4, i32 noundef %5)
  %30 = load i64, ptr %2, align 4
  %31 = and i64 %30, 536870911
  %32 = sub nsw i64 0, %31
  %33 = getelementptr inbounds %struct.Gia_Obj_t_, ptr %2, i64 %32
  %.val.i.i = load i32, ptr %7, align 8, !tbaa !12
  %34 = mul nsw i32 %.val.i.i, %4
  %.val5.i.i = load ptr, ptr %9, align 8, !tbaa !36
  %35 = ptrtoint ptr %33 to i64
  %36 = ptrtoint ptr %.val5.i.i to i64
  %37 = sub i64 %35, %36
  %38 = sdiv exact i64 %37, 12
  %39 = trunc i64 %38 to i32
  %40 = add nsw i32 %34, %39
  %.val4.i.i = load ptr, ptr %16, align 8, !tbaa !8
  %41 = sext i32 %40 to i64
  %42 = getelementptr inbounds i32, ptr %.val4.i.i, i64 %41
  %43 = load i32, ptr %42, align 4, !tbaa !32
  %44 = trunc i64 %30 to i32
  %45 = lshr i32 %44, 29
  %46 = and i32 %45, 1
  %47 = xor i32 %43, %46
  %48 = lshr i64 %30, 32
  %49 = and i64 %48, 536870911
  %50 = sub nsw i64 0, %49
  %51 = getelementptr inbounds %struct.Gia_Obj_t_, ptr %2, i64 %50
  %52 = ptrtoint ptr %51 to i64
  %53 = sub i64 %52, %36
  %54 = sdiv exact i64 %53, 12
  %55 = trunc i64 %54 to i32
  %56 = add nsw i32 %34, %55
  %57 = sext i32 %56 to i64
  %58 = getelementptr inbounds i32, ptr %.val4.i.i, i64 %57
  %59 = load i32, ptr %58, align 4, !tbaa !32
  %60 = lshr i64 %30, 61
  %61 = trunc nuw nsw i64 %60 to i32
  %62 = and i32 %61, 1
  %63 = xor i32 %59, %62
  %64 = tail call i32 @Gia_ManHashAnd(ptr noundef %0, i32 noundef %47, i32 noundef %63) #31
  %.val.i33 = load i32, ptr %7, align 8, !tbaa !12
  %65 = mul nsw i32 %.val.i33, %4
  %.val6.i = load ptr, ptr %9, align 8, !tbaa !36
  %66 = ptrtoint ptr %.val6.i to i64
  %67 = sub i64 %10, %66
  %68 = sdiv exact i64 %67, 12
  %69 = trunc i64 %68 to i32
  %70 = add nsw i32 %65, %69
  %.val5.i34 = load ptr, ptr %16, align 8, !tbaa !8
  %71 = sext i32 %70 to i64
  %72 = getelementptr inbounds i32, ptr %.val5.i34, i64 %71
  store i32 %64, ptr %72, align 4, !tbaa !32
  tail call void @Gia_ManSpecBuildInit(ptr noundef %0, ptr noundef nonnull %1, ptr noundef nonnull %2, ptr noundef %3, i32 noundef %4, i32 noundef %5)
  br label %common.ret35
}